(dp0
S'2KT'
p1
I2
sS'CPH'
p2
I5
sS'G24'
p3
I7
sS'2FX'
p4
I2
sS'CPN'
p5
I7
sS'B30'
p6
I6
sS'29B'
p7
I2
sS'BGC'
p8
I1
sS'HMR'
p9
I7
sS'B2F'
p10
I3
sS'AH8'
p11
I2
sS'B2A'
p12
I1
sS'G5A'
p13
I7
sS'8OX'
p14
I2
sS'DY6'
p15
I6
sS'5NA'
p16
I1
sS'7CK'
p17
I1
sS'FIP'
p18
I5
sS'4NZ'
p19
I2
sS'717'
p20
I1
sS'FIX'
p21
I5
sS'2FD'
p22
I2
sS'CT6'
p23
I4
sS'GIA'
p24
I6
sS'ALJ'
p25
I4
sS'FIH'
p26
I5
sS'FIN'
p27
I7
sS'34Z'
p28
I1
sS'BYA'
p29
I5
sS'AHB'
p30
I3
sS'CT3'
p31
I7
sS'B23'
p32
I3
sS'B21'
p33
I3
sS'AHR'
p34
I1
sS'AHQ'
p35
I3
sS'AHU'
p36
I2
sS'FFG'
p37
I7
sS'293'
p38
I2
sS'G2I'
p39
I7
sS'D72'
p40
I5
sS'593'
p41
I2
sS'D71'
p42
I4
sS'BEN'
p43
I1
sS'DTM'
p44
I6
sS'D8W'
p45
I4
sS'DTB'
p46
I6
sS'DTA'
p47
I7
sS'CMB'
p48
I7
sS'192'
p49
I1
sS'BEZ'
p50
I1
sS'3CU'
p51
I1
sS'273'
p52
I1
sS'4AA'
p53
I1
sS'149'
p54
I1
sS'278'
p55
I1
sS'BEV'
p56
I1
sS'D28'
p57
I4
sS'BEU'
p58
I3
sS'BL1'
p59
I4
sS'BL0'
p60
I3
sS'521'
p61
I2
sS'FTP'
p62
I7
sS'DST'
p63
I6
sS'FTA'
p64
I5
sS'52V'
p65
I3
sS'52P'
p66
I3
sS'BLE'
p67
I3
sS'5UD'
p68
I2
sS'106'
p69
I3
sS'CBC'
p70
I6
sS'8HG'
p71
I2
sS'907'
p72
I2
sS'CBK'
p73
I4
sS'CBI'
p74
I4
sS'F6R'
p75
I7
sS'BM1'
p76
I1
sS'INI'
p77
I7
sS'DT3'
p78
I4
sS'DT2'
p79
I5
sS'DT1'
p80
I6
sS'EV4'
p81
I6
sS'EV5'
p82
I7
sS'DT5'
p83
I5
sS'EKO'
p84
I6
sS'DOI'
p85
I6
sS'BZS'
p86
I5
sS'CTR'
p87
I7
sS'DOM'
p88
I4
sS'B97'
p89
I1
sS'EKB'
p90
I5
sS'B90'
p91
I5
sS'332'
p92
I3
sS'5CD'
p93
I2
sS'DOQ'
p94
I7
sS'AKG'
p95
I4
sS'BJM'
p96
I3
sS'BZH'
p97
I6
sS'855'
p98
I3
sS'DF9'
p99
I6
sS'BSU'
p100
I4
sS'FM5'
p101
I6
sS'GGZ'
p102
I6
sS'BSM'
p103
I6
sS'BSI'
p104
I4
sS'GGB'
p105
I6
sS'1SA'
p106
I1
sS'CX9'
p107
I4
sS'DFZ'
p108
I5
sS'DFP'
p109
I4
sS'6IP'
p110
I3
sS'JS7'
p111
I7
sS'G16'
p112
I5
sS'G15'
p113
I7
sS'C0Z'
p114
I5
sS'EDB'
p115
I7
sS'ALO'
p116
I2
sS'ALL'
p117
I1
sS'CT0'
p118
I5
sS'EDD'
p119
I7
sS'ALI'
p120
I2
sS'ALE'
p121
I3
sS'CT8'
p122
I4
sS'CT9'
p123
I7
sS'BZ9'
p124
I6
sS'B9D'
p125
I1
sS'DO4'
p126
I4
sS'05S'
p127
I1
sS'BAV'
p128
I6
sS'BAU'
p129
I6
sS'745'
p130
I3
sS'ERY'
p131
I7
sS'553'
p132
I3
sS'D31'
p133
I6
sS'DPF'
p134
I4
sS'BAB'
p135
I4
sS'EPS'
p136
I6
sS'BAO'
p137
I4
sS'CF4'
p138
I6
sS'BAM'
p139
I1
sS'DPJ'
p140
I4
sS'BAH'
p141
I4
sS'CF1'
p142
I5
sS'B72'
p143
I6
sS'11X'
p144
I3
sS'D4N'
p145
I7
sS'2A7'
p146
I1
sS'B78'
p147
I4
sS'BAK'
p148
I4
sS'IIG'
p149
I7
sS'AB3'
p150
I2
sS'IIA'
p151
I7
sS'IAD'
p152
I7
sS'A92'
p153
I3
sS'DYB'
p154
I5
sS'14I'
p155
I2
sS'144'
p156
I3
sS'DJZ'
p157
I7
sS'FXY'
p158
I7
sS'ABF'
p159
I3
sS'ABJ'
p160
I2
sS'CZM'
p161
I4
sS'ABN'
p162
I1
sS'1F1'
p163
I1
sS'BTM'
p164
I5
sS'ABU'
p165
I3
sS'D42'
p166
I5
sS'FXA'
p167
I7
sS'2LP'
p168
I2
sS'6PC'
p169
I1
sS'2EZ'
p170
I1
sS'BHH'
p171
I5
sS'BHM'
p172
I6
sS'HS3'
p173
I7
sS'BHA'
p174
I1
sS'CA2'
p175
I6
sS'BHB'
p176
I5
sS'23A'
p177
I1
sS'BHF'
p178
I1
sS'1AC'
p179
I1
sS'2EC'
p180
I1
sS'D3E'
p181
I7
sS'HS5'
p182
I7
sS'AP6'
p183
I1
sS'FNZ'
p184
I5
sS'132'
p185
I3
sS'130'
p186
I3
sS'IP7'
p187
I7
sS'BGS'
p188
I3
sS'AOD'
p189
I4
sS'4PO'
p190
I2
sS'3RH'
p191
I1
sS'3RR'
p192
I2
sS'3RP'
p193
I2
sS'6CS'
p194
I1
sS'EY5'
p195
I6
sS'DYH'
p196
I5
sS'H59'
p197
I7
sS'BFE'
p198
I4
sS'FG4'
p199
I7
sS'C75'
p200
I4
sS'FG6'
p201
I7
sS'BFH'
p202
I3
sS'4FA'
p203
I2
sS'FG2'
p204
I5
sS'FG3'
p205
I7
sS'H5U'
p206
I7
sS'4P5'
p207
I1
sS'6C3'
p208
I2
sS'4FZ'
p209
I2
sS'CED'
p210
I7
sS'HRG'
p211
I7
sS'4FP'
p212
I2
sS'13A'
p213
I2
sS'DK5'
p214
I5
sS'DK2'
p215
I5
sS'13D'
p216
I2
sS'C3D'
p217
I6
sS'BR5'
p218
I4
sS'APW'
p219
I4
sS'KAP'
p220
I7
sS'3KC'
p221
I1
sS'9HP'
p222
I1
sS'C3P'
p223
I4
sS'2AE'
p224
I1
sS'IFA'
p225
I7
sS'FUN'
p226
I5
sS'51P'
p227
I3
sS'F1J'
p228
I6
sS'A4D'
p229
I2
sS'BMA'
p230
I1
sS'B39'
p231
I6
sS'24B'
p232
I1
sS'CEO'
p233
I7
sS'2FY'
p234
I2
sS'BMI'
p235
I5
sS'CEK'
p236
I6
sS'CEI'
p237
I7
sS'BMS'
p238
I5
sS'2FA'
p239
I2
sS'BMQ'
p240
I4
sS'BMV'
p241
I6
sS'BMW'
p242
I3
sS'BMU'
p243
I5
sS'AF1'
p244
I3
sS'CS2'
p245
I5
sS'D05'
p246
I4
sS'DLG'
p247
I7
sS'BG6'
p248
I3
sS'5FN'
p249
I1
sS'HM4'
p250
I7
sS'5FD'
p251
I2
sS'79X'
p252
I2
sS'2HI'
p253
I1
sS'BM3'
p254
I3
sS'F19'
p255
I6
sS'ENT'
p256
I7
sS'CE2'
p257
I4
sS'DLU'
p258
I4
sS'BM5'
p259
I3
sS'2HA'
p260
I2
sS'DLZ'
p261
I5
sS'DLY'
p262
I5
sS'ABO'
p263
I3
sS'2HE'
p264
I2
sS'BTW'
p265
I4
sS'FU5'
p266
I6
sS'BTQ'
p267
I5
sS'CP5'
p268
I4
sS'BTD'
p269
I3
sS'CZI'
p270
I6
sS'CZN'
p271
I6
sS'2A1'
p272
I1
sS'CZB'
p273
I6
sS'BTI'
p274
I5
sS'459'
p275
I2
sS'C73'
p276
I6
sS'C72'
p277
I4
sS'454'
p278
I2
sS'6NH'
p279
I3
sS'ATU'
p280
I1
sS'174'
p281
I1
sS'173'
p282
I2
sS'3D1'
p283
I2
sS'D94'
p284
I4
sS'DGP'
p285
I4
sS'DGL'
p286
I4
sS'IRE'
p287
I7
sS'ASA'
p288
I3
sS'FR7'
p289
I6
sS'FR6'
p290
I6
sS'184'
p291
I3
sS'CMF'
p292
I6
sS'CL4'
p293
I7
sS'ASJ'
p294
I3
sS'CL6'
p295
I4
sS'ASH'
p296
I4
sS'BB3'
p297
I5
sS'4BY'
p298
I1
sS'AS2'
p299
I3
sS'BBL'
p300
I6
sS'DUN'
p301
I6
sS'3DS'
p302
I1
sS'651'
p303
I2
sS'DUD'
p304
I6
sS'BBA'
p305
I6
sS'FRL'
p306
I7
sS'DG2'
p307
I6
sS'IM9'
p308
I7
sS'3DG'
p309
I2
sS'D9H'
p310
I6
sS'06H'
p311
I1
sS'FRY'
p312
I5
sS'BBT'
p313
I4
sS'62P'
p314
I2
sS'CB1'
p315
I4
sS'1MR'
p316
I1
sS'2T0'
p317
I2
sS'CMZ'
p318
I5
sS'AAE'
p319
I2
sS'BPE'
p320
I6
sS'5ID'
p321
I2
sS'885'
p322
I3
sS'CLM'
p323
I7
sS'AAN'
p324
I3
sS'BPQ'
p325
I5
sS'K03'
p326
I7
sS'261'
p327
I2
sS'2ME'
p328
I1
sS'B4N'
p329
I6
sS'G00'
p330
I7
sS'06J'
p331
I1
sS'A8S'
p332
I3
sS'BIM'
p333
I1
sS'C94'
p334
I4
sS'F09'
p335
I7
sS'BIE'
p336
I3
sS'G93'
p337
I5
sS'43P'
p338
I3
sS'DH3'
p339
I7
sS'D23'
p340
I4
sS'5AC'
p341
I1
sS'7AP'
p342
I2
sS'G9F'
p343
I6
sS'AJZ'
p344
I2
sS'FKL'
p345
I6
sS'DHJ'
p346
I7
sS'207'
p347
I3
sS'G9M'
p348
I5
sS'DHD'
p349
I4
sS'G9I'
p350
I5
sS'CK8'
p351
I4
sS'FRM'
p352
I5
sS'BI8'
p353
I5
sS'A05'
p354
I3
sS'BI4'
p355
I5
sS'BI5'
p356
I6
sS'AJD'
p357
I3
sS'5P3'
p358
I2
sS'BI1'
p359
I6
sS'B45'
p360
I4
sS'B40'
p361
I3
sS'B43'
p362
I4
sS'2M5'
p363
I2
sS'88X'
p364
I3
sS'BP2'
p365
I4
sS'BP5'
p366
I4
sS'GFA'
p367
I7
sS'CKE'
p368
I5
sS'CMI'
p369
I7
sS'3CN'
p370
I1
sS'667'
p371
I2
sS'AXX'
p372
I4
sS'ADA'
p373
I1
sS'CKI'
p374
I4
sS'BGN'
p375
I5
sS'BGP'
p376
I3
sS'AXC'
p377
I3
sS'AXA'
p378
I6
sS'BGT'
p379
I6
sS'F25'
p380
I5
sS'5AD'
p381
I1
sS'2PN'
p382
I2
sS'C2R'
p383
I5
sS'B1Q'
p384
I4
sS'DCM'
p385
I4
sS'696'
p386
I3
sS'DCK'
p387
I4
sS'BN1'
p388
I4
sS'12M'
p389
I2
sS'4HL'
p390
I2
sS'GP8'
p391
I7
sS'GSX'
p392
I7
sS'DCV'
p393
I6
sS'DCS'
p394
I6
sS'GDP'
p395
I6
sS'GSZ'
p396
I7
sS'C27'
p397
I5
sS'GPE'
p398
I7
sS'DQX'
p399
I5
sS'37D'
p400
I3
sS'120'
p401
I2
sS'121'
p402
I2
sS'122'
p403
I2
sS'123'
p404
I3
sS'BNL'
p405
I1
sS'HAR'
p406
I7
sS'DC2'
p407
I7
sS'BNF'
p408
I3
sS'BNE'
p409
I6
sS'IHZ'
p410
I7
sS'AX1'
p411
I1
sS'AX6'
p412
I4
sS'D5M'
p413
I4
sS'AX5'
p414
I3
sS'DRK'
p415
I7
sS'CK4'
p416
I4
sS'CK7'
p417
I4
sS'KIN'
p418
I7
sS'KIM'
p419
I7
sS'3C4'
p420
I2
sS'H64'
p421
I7
sS'CRR'
p422
I4
sS'DMA'
p423
I5
sS'AES'
p424
I3
sS'EMF'
p425
I5
sS'78P'
p426
I2
sS'CRZ'
p427
I4
sS'311'
p428
I3
sS'ID5'
p429
I7
sS'DMM'
p430
I7
sS'DMO'
p431
I5
sS'FDP'
p432
I6
sS'CRK'
p433
I7
sS'AEJ'
p434
I3
sS'FQP'
p435
I6
sS'E4P'
p436
I5
sS'B0D'
p437
I1
sS'GET'
p438
I6
sS'8AP'
p439
I3
sS'E4D'
p440
I6
sS'BUM'
p441
I3
sS'770'
p442
I3
sS'DDY'
p443
I6
sS'EFQ'
p444
I6
sS'BU1'
p445
I3
sS'DDO'
p446
I5
sS'FOM'
p447
I5
sS'BB4'
p448
I3
sS'CR3'
p449
I4
sS'CR0'
p450
I6
sS'780'
p451
I3
sS'CR9'
p452
I4
sS'DM1'
p453
I4
sS'DM2'
p454
I5
sS'BAI'
p455
I3
sS'DM6'
p456
I5
sS'DM8'
p457
I4
sS'COQ'
p458
I5
sS'ETP'
p459
I6
sS'D10'
p460
I7
sS'9DI'
p461
I2
sS'FSI'
p462
I6
sS'3GR'
p463
I2
sS'4CS'
p464
I1
sS'AKT'
p465
I4
sS'COC'
p466
I5
sS'259'
p467
I2
sS'CD2'
p468
I5
sS'A2G'
p469
I3
sS'4CB'
p470
I2
sS'8DA'
p471
I2
sS'HE3'
p472
I7
sS'3RQ'
p473
I2
sS'736'
p474
I3
sS'738'
p475
I3
sS'505'
p476
I3
sS'7NI'
p477
I1
sS'2ND'
p478
I2
sS'D1U'
p479
I7
sS'CO4'
p480
I6
sS'CIR'
p481
I6
sS'1CY'
p482
I1
sS'CDT'
p483
I6
sS'CDV'
p484
I4
sS'D1A'
p485
I5
sS'D1B'
p486
I4
sS'5Z5'
p487
I3
sS'BJZ'
p488
I4
sS'57D'
p489
I1
sS'3PY'
p490
I2
sS'DIF'
p491
I4
sS'AIQ'
p492
I3
sS'AIS'
p493
I2
sS'C18'
p494
I5
sS'DIX'
p495
I4
sS'DIZ'
p496
I4
sS'C12'
p497
I6
sS'HYZ'
p498
I7
sS'C17'
p499
I4
sS'C8M'
p500
I6
sS'EIN'
p501
I7
sS'HP8'
p502
I7
sS'GAX'
p503
I7
sS'FAR'
p504
I6
sS'G3X'
p505
I5
sS'GAR'
p506
I6
sS'3N4'
p507
I2
sS'BE9'
p508
I4
sS'3N2'
p509
I2
sS'3N1'
p510
I2
sS'GAE'
p511
I5
sS'FO1'
p512
I5
sS'4DM'
p513
I1
sS'G39'
p514
I7
sS'GA2'
p515
I5
sS'BE2'
p516
I1
sS'3NT'
p517
I1
sS'HPL'
p518
I7
sS'BE0'
p519
I1
sS'EBD'
p520
I6
sS'EBG'
p521
I5
sS'ARW'
p522
I1
sS'BX1'
p523
I6
sS'BX2'
p524
I5
sS'EBI'
p525
I7
sS'C1E'
p526
I4
sS'4MA'
p527
I1
sS'EBP'
p528
I6
sS'DI9'
p529
I4
sS'C1R'
p530
I4
sS'801'
p531
I2
sS'G88'
p532
I6
sS'ARN'
p533
I4
sS'358'
p534
I3
sS'DRX'
p535
I5
sS'762'
p536
I3
sS'CCT'
p537
I5
sS'CCV'
p538
I4
sS'A6P'
p539
I3
sS'K11'
p540
I7
sS'DAI'
p541
I5
sS'C02'
p542
I6
sS'53V'
p543
I3
sS'EPL'
p544
I7
sS'53T'
p545
I3
sS'53S'
p546
I3
sS'53R'
p547
I3
sS'DRN'
p548
I7
sS'DRC'
p549
I5
sS'EPE'
p550
I5
sS'EPC'
p551
I6
sS'26A'
p552
I3
sS'B59'
p553
I1
sS'FP4'
p554
I6
sS'B57'
p555
I1
sS'289'
p556
I2
sS'7I2'
p557
I2
sS'BCE'
p558
I4
sS'280'
p559
I1
sS'282'
p560
I1
sS'1HP'
p561
I1
sS'BCG'
p562
I4
sS'DAR'
p563
I6
sS'B5P'
p564
I6
sS'263'
p565
I2
sS'4NM'
p566
I2
sS'5HT'
p567
I2
sS'260'
p568
I1
sS'264'
p569
I2
sS'D67'
p570
I4
sS'268'
p571
I3
sS'1HN'
p572
I1
sS'5HY'
p573
I2
sS'CXS'
p574
I5
sS'CXV'
p575
I7
sS'8NX'
p576
I1
sS'BCN'
p577
I6
sS'DBN'
p578
I4
sS'258'
p579
I3
sS'2CL'
p580
I2
sS'CXA'
p581
I5
sS'1GL'
p582
I1
sS'DR0'
p583
I6
sS'8NH'
p584
I1
sS'DEZ'
p585
I5
sS'COG'
p586
I5
sS'200'
p587
I3
sS'DEP'
p588
I4
sS'FLS'
p589
I6
sS'DES'
p590
I4
sS'DHM'
p591
I5
sS'BVP'
p592
I5
sS'DEL'
p593
I4
sS'C5D'
p594
I6
sS'DEG'
p595
I5
sS'6AN'
p596
I2
sS'AML'
p597
I3
sS'3TC'
p598
I2
sS'428'
p599
I1
sS'AMP'
p600
I4
sS'AKD'
p601
I3
sS'H71'
p602
I7
sS'B89'
p603
I6
sS'CJH'
p604
I6
sS'BDF'
p605
I1
sS'BDB'
p606
I3
sS'3BZ'
p607
I1
sS'B80'
p608
I6
sS'42C'
p609
I1
sS'BDI'
p610
I3
sS'B87'
p611
I5
sS'AM9'
p612
I4
sS'BDP'
p613
I1
sS'BDR'
p614
I1
sS'AM1'
p615
I4
sS'3BH'
p616
I2
sS'DBS'
p617
I5
sS'IPX'
p618
I7
sS'DZ8'
p619
I7
sS'3ML'
p620
I2
sS'3MG'
p621
I2
sS'3MB'
p622
I2
sS'2OH'
p623
I2
sS'FB6'
p624
I6
sS'FB5'
p625
I7
sS'BR6'
p626
I3
sS'ACI'
p627
I1
sS'FPR'
p628
I7
sS'7L4'
p629
I1
sS'E38'
p630
I5
sS'G69'
p631
I7
sS'2OP'
p632
I1
sS'4UB'
p633
I2
sS'22K'
p634
I2
sS'AD3'
p635
I2
sS'BI2'
p636
I5
sS'C50'
p637
I6
sS'BI3'
p638
I5
sS'D2H'
p639
I5
sS'2DI'
p640
I2
sS'DER'
p641
I5
sS'K01'
p642
I7
sS'K02'
p643
I7
sS'ELI'
p644
I6
sS'I19'
p645
I7
sS'DNO'
p646
I5
sS'9CL'
p647
I1
sS'564'
p648
I3
sS'D27'
p649
I7
sS'BK1'
p650
I3
sS'BK3'
p651
I4
sS'ADN'
p652
I2
sS'ELV'
p653
I7
sS'B63'
p654
I5
sS'FBP'
p655
I6
sS'GDV'
p656
I6
sS'3HA'
p657
I1
sS'BRU'
p658
I4
sS'G6A'
p659
I5
sS'BRQ'
p660
I4
sS'BRN'
p661
I5
sS'724'
p662
I3
sS'BRK'
p663
I5
sS'AC6'
p664
I1
sS'BRH'
p665
I3
sS'G6Q'
p666
I7
sS'AZM'
p667
I3
sS'3AL'
p668
I2
sS'3AB'
p669
I1
sS'CIH'
p670
I4
sS'609'
p671
I1
sS'3AD'
p672
I2
sS'AZY'
p673
I4
sS'AZZ'
p674
I3
sS'15A'
p675
I3
sS'EAM'
p676
I6
sS'DAN'
p677
I6
sS'A18'
p678
I3
sS'956'
p679
I3
sS'DAT'
p680
I6
sS'C0Y'
p681
I3
sS'3HB'
p682
I1
sS'4NC'
p683
I1
sS'C0P'
p684
I5
sS'3HL'
p685
I2
sS'3HM'
p686
I1
sS'3FZ'
p687
I2
sS'795'
p688
I2
sS'CNX'
p689
I4
sS'DA7'
p690
I5
sS'DA3'
p691
I4
sS'3FG'
p692
I2
sS'DWH'
p693
I7
sS'EA2'
p694
I5
sS'DA9'
p695
I5
sS'15L'
p696
I1
sS'DXP'
p697
I5
sS'472'
p698
I3
sS'5OB'
p699
I1
sS'BMH'
p700
I6
s.